target datalayout = "e-m:e-p270:32:32-p271:32:32-p272:64:64-i64:64-i128:128-f80:128-n8:16:32:64-S128"
target triple = "x86_64-pc-linux-gnu"

@.str = private unnamed_addr constant [30 x i8] c"../openssl/test/wpackettest.c\00", align 1
@.str.1 = private unnamed_addr constant [20 x i8] c"buf = BUF_MEM_new()\00", align 1
@buf = internal global ptr null, align 8
@.str.2 = private unnamed_addr constant [18 x i8] c"test_WPACKET_init\00", align 1
@.str.3 = private unnamed_addr constant [26 x i8] c"test_WPACKET_set_max_size\00", align 1
@.str.4 = private unnamed_addr constant [30 x i8] c"test_WPACKET_start_sub_packet\00", align 1
@.str.5 = private unnamed_addr constant [23 x i8] c"test_WPACKET_set_flags\00", align 1
@.str.6 = private unnamed_addr constant [28 x i8] c"test_WPACKET_allocate_bytes\00", align 1
@.str.7 = private unnamed_addr constant [20 x i8] c"test_WPACKET_memcpy\00", align 1
@.str.8 = private unnamed_addr constant [22 x i8] c"test_WPACKET_init_der\00", align 1
@.str.9 = private unnamed_addr constant [18 x i8] c"test_WPACKET_quic\00", align 1
@.str.10 = private unnamed_addr constant [31 x i8] c"test_WPACKET_quic_vlint_random\00", align 1

; Function Attrs: nounwind uwtable
define dso_local i32 @setup_tests() #0 {
  %1 = alloca i32, align 4
  %2 = call ptr @BUF_MEM_new()
  store ptr %2, ptr @buf, align 8, !tbaa !4
  %3 = call i32 @test_ptr(ptr noundef @.str, i32 noundef 634, ptr noundef @.str.1, ptr noundef %2)
  %4 = icmp ne i32 %3, 0
  br i1 %4, label %6, label %5

5:                                                ; preds = %0
  store i32 0, ptr %1, align 4
  br label %7

6:                                                ; preds = %0
  call void @add_test(ptr noundef @.str.2, ptr noundef @test_WPACKET_init)
  call void @add_test(ptr noundef @.str.3, ptr noundef @test_WPACKET_set_max_size)
  call void @add_test(ptr noundef @.str.4, ptr noundef @test_WPACKET_start_sub_packet)
  call void @add_test(ptr noundef @.str.5, ptr noundef @test_WPACKET_set_flags)
  call void @add_test(ptr noundef @.str.6, ptr noundef @test_WPACKET_allocate_bytes)
  call void @add_test(ptr noundef @.str.7, ptr noundef @test_WPACKET_memcpy)
  call void @add_test(ptr noundef @.str.8, ptr noundef @test_WPACKET_init_der)
  call void @add_test(ptr noundef @.str.9, ptr noundef @test_WPACKET_quic)
  call void @add_test(ptr noundef @.str.10, ptr noundef @test_WPACKET_quic_vlint_random)
  store i32 1, ptr %1, align 4
  br label %7

7:                                                ; preds = %6, %5
  %8 = load i32, ptr %1, align 4
  ret i32 %8
}