; Function Attrs: nounwind uwtable
define dso_local range(i32 0, 2) i32 @setup_tests() local_unnamed_addr #0 {
  %1 = tail call ptr @BUF_MEM_new() #4
  store ptr %1, ptr @buf, align 8, !tbaa !4
  %2 = tail call i32 @test_ptr(ptr noundef nonnull @.str, i32 noundef 634, ptr noundef nonnull @.str.1, ptr noundef %1) #4
  %.not = icmp eq i32 %2, 0
  br i1 %.not, label %4, label %3

3:                                                ; preds = %0
  tail call void @add_test(ptr noundef nonnull @.str.2, ptr noundef nonnull @test_WPACKET_init) #4
  tail call void @add_test(ptr noundef nonnull @.str.3, ptr noundef nonnull @test_WPACKET_set_max_size) #4
  tail call void @add_test(ptr noundef nonnull @.str.4, ptr noundef nonnull @test_WPACKET_start_sub_packet) #4
  tail call void @add_test(ptr noundef nonnull @.str.5, ptr noundef nonnull @test_WPACKET_set_flags) #4
  tail call void @add_test(ptr noundef nonnull @.str.6, ptr noundef nonnull @test_WPACKET_allocate_bytes) #4
  tail call void @add_test(ptr noundef nonnull @.str.7, ptr noundef nonnull @test_WPACKET_memcpy) #4
  tail call void @add_test(ptr noundef nonnull @.str.8, ptr noundef nonnull @test_WPACKET_init_der) #4
  tail call void @add_test(ptr noundef nonnull @.str.9, ptr noundef nonnull @test_WPACKET_quic) #4
  tail call void @add_test(ptr noundef nonnull @.str.10, ptr noundef nonnull @test_WPACKET_quic_vlint_random) #4
  br label %4

4:                                                ; preds = %0, %3
  %.0 = phi i32 [ 1, %3 ], [ 0, %0 ]
  ret i32 %.0
}